; ModuleID = '16/222.c'
source_filename = "16/222.c"
target datalayout = "e-m:e-p270:32:32-p271:32:32-p272:64:64-i64:64-f80:128-n8:16:32:64-S128"
target triple = "x86_64-pc-linux-gnu"

@.str = private unnamed_addr constant [3 x i8] c"%d\00", align 1

; Function Attrs: noinline nounwind uwtable
define dso_local i32 @main() #0 {
  %1 = alloca i32, align 4
  %2 = alloca i32, align 4
  store i32 0, i32* %1, align 4
  %3 = call i32 (i8*, ...) @__isoc99_scanf(i8* getelementptr inbounds ([3 x i8], [3 x i8]* @.str, i64 0, i64 0), i32* %2)
  %4 = load i32, i32* %2, align 4
  %5 = icmp eq i32 %4, 0
  br i1 %5, label %6, label %9

6:                                                ; preds = %0
  %7 = load i32, i32* %2, align 4
  %8 = call i32 (i8*, ...) @printf(i8* getelementptr inbounds ([3 x i8], [3 x i8]* @.str, i64 0, i64 0), i32 %7)
  br label %9

9:                                                ; preds = %6, %0
  %10 = load i32, i32* %2, align 4
  %11 = icmp ne i32 %10, 0
  br i1 %11, label %12, label %23

12:                                               ; preds = %9
  br label %13

13:                                               ; preds = %16, %12
  %14 = load i32, i32* %2, align 4
  %15 = icmp sgt i32 %14, 0
  br i1 %15, label %16, label %22

16:                                               ; preds = %13
  %17 = load i32, i32* %2, align 4
  %18 = srem i32 %17, 10
  %19 = call i32 (i8*, ...) @printf(i8* getelementptr inbounds ([3 x i8], [3 x i8]* @.str, i64 0, i64 0), i32 %18)
  %20 = load i32, i32* %2, align 4
  %21 = sdiv i32 %20, 10
  store i32 %21, i32* %2, align 4
  br label %13

22:                                               ; preds = %13
  br label %23

23:                                               ; preds = %22, %9
  ret i32 0
}

declare dso_local i32 @__isoc99_scanf(i8*, ...) #1

declare dso_local i32 @printf(i8*, ...) #1


!llvm.module.flags = !{!0}
!llvm.ident = !{!1}

!0 = !{i32 1, !"wchar_size", i32 4}
!1 = !{!"clang version 10.0.0-4ubuntu1 "}
